(ikeras_frcnn.config
Config
p0
(dp1
S'use_vertical_flips'
p2
I00
sS'verbose'
p3
I01
sS'classifier_regr_std'
p4
(lp5
F8.0
aF8.0
aF4.0
aF4.0
asS'classifier_min_overlap'
p6
F0.1
sS'rot_90'
p7
I00
sS'class_mapping'
p8
(dp9
S'sheep'
p10
I10
sS'bottle'
p11
I7
sS'horse'
p12
I11
sS'bg'
p13
I14
sS'bicycle'
p14
I4
sS'motorbike'
p15
I3
sS'bus'
p16
I0
sS'dog'
p17
I12
sS'person'
p18
I1
sS'train'
p19
I8
sS'aeroplane'
p20
I6
sS'car'
p21
I2
sS'pottedplant'
p22
I5
sS'bird'
p23
I13
sS'boat'
p24
I9
ssS'use_horizontal_flips'
p25
I00
sS'rpn_max_overlap'
p26
F0.7
sS'network'
p27
S'resnet50'
p28
sS'img_channel_mean'
p29
(lp30
F103.939
aF116.779
aF123.68
asS'balanced_classes'
p31
I00
sS'anchor_box_ratios'
p32
(lp33
(lp34
I1
aI1
aa(lp35
I1
aI2
aa(lp36
I2
aI1
aasS'img_scaling_factor'
p37
F1.0
sS'rpn_stride'
p38
I16
sS'num_rois'
p39
I32
sS'base_net_weights'
p40
S'resnet50_weights_tf_dim_ordering_tf_kernels.h5'
p41
sS'anchor_box_scales'
p42
(lp43
I128
aI256
aI512
asS'rpn_min_overlap'
p44
F0.3
sS'model_path'
p45
S'./model_frcnn.hdf5'
p46
sS'classifier_max_overlap'
p47
F0.5
sS'std_scaling'
p48
F4.0
sS'im_size'
p49
I600
sb.